target datalayout = "e-m:e-p270:32:32-p271:32:32-p272:64:64-i64:64-i128:128-f80:128-n8:16:32:64-S128"
target triple = "x86_64-pc-linux-gnu"

%struct.PJconsts = type { ptr, ptr, ptr, ptr, ptr, ptr, ptr, ptr, ptr, ptr, ptr, ptr, i32, ptr, ptr, ptr, ptr, ptr, ptr, ptr, ptr, double, double, double, double, double, double, double, double, double, double, double, double, double, double, double, double, double, double, double, double, double, double, i32, i32, i32, i32, i32, i32, i32, i32, i32, i32, i32, ptr, ptr, ptr, ptr, ptr, ptr, double, double, double, double, double, double, double, double, double, double, double, i32, [7 x double], i32, ptr, ptr, double, double, i32, [4 x i8], %"class.std::shared_ptr", i8, double, i8, %"class.std::__cxx11::basic_string", %"class.std::__cxx11::basic_string", %"class.std::__cxx11::basic_string", i8, %"class.std::vector", i32, %"class.std::vector.3", i32, i8, i8, i8, ptr }
%"class.std::shared_ptr" = type { %"class.std::__shared_ptr" }
%"class.std::__shared_ptr" = type { ptr, %"class.std::__shared_count" }
%"class.std::__shared_count" = type { ptr }
%"class.std::__cxx11::basic_string" = type { %"struct.std::__cxx11::basic_string<char>::_Alloc_hider", i64, %union.anon }
%"struct.std::__cxx11::basic_string<char>::_Alloc_hider" = type { ptr }
%union.anon = type { i64, [8 x i8] }
%"class.std::vector" = type { %"struct.std::_Vector_base" }
%"struct.std::_Vector_base" = type { %"struct.std::_Vector_base<osgeo::proj::operation::GridDescription, std::allocator<osgeo::proj::operation::GridDescription>>::_Vector_impl" }
%"struct.std::_Vector_base<osgeo::proj::operation::GridDescription, std::allocator<osgeo::proj::operation::GridDescription>>::_Vector_impl" = type { %"struct.std::_Vector_base<osgeo::proj::operation::GridDescription, std::allocator<osgeo::proj::operation::GridDescription>>::_Vector_impl_data" }
%"struct.std::_Vector_base<osgeo::proj::operation::GridDescription, std::allocator<osgeo::proj::operation::GridDescription>>::_Vector_impl_data" = type { ptr, ptr, ptr }
%"class.std::vector.3" = type { %"struct.std::_Vector_base.4" }
%"struct.std::_Vector_base.4" = type { %"struct.std::_Vector_base<PJCoordOperation, std::allocator<PJCoordOperation>>::_Vector_impl" }
%"struct.std::_Vector_base<PJCoordOperation, std::allocator<PJCoordOperation>>::_Vector_impl" = type { %"struct.std::_Vector_base<PJCoordOperation, std::allocator<PJCoordOperation>>::_Vector_impl_data" }
%"struct.std::_Vector_base<PJCoordOperation, std::allocator<PJCoordOperation>>::_Vector_impl_data" = type { ptr, ptr, ptr }
%"struct.(anonymous namespace)::pj_aeqd_data" = type { double, double, ptr, double, double, double, double, double, i32, %struct.geod_geodesic }
%struct.geod_geodesic = type { double, double, double, double, double, double, double, double, double, [6 x double], [15 x double], [21 x double] }
%struct.PJ_LP = type { double, double }
%struct.PJ_XY = type { double, double }

; Function Attrs: mustprogress uwtable
define internal { double, double } @_ZL14aeqd_s_forward5PJ_LPP8PJconsts(double %0, double %1, ptr noundef %2) #0 {
  %4 = alloca %struct.PJ_XY, align 8
  %5 = alloca %struct.PJ_LP, align 8
  %6 = alloca ptr, align 8
  %7 = alloca %struct.PJ_XY, align 8
  %8 = alloca ptr, align 8
  %9 = alloca double, align 8
  %10 = alloca double, align 8
  %11 = alloca double, align 8
  %12 = alloca double, align 8
  %13 = alloca i32, align 4
  %14 = alloca %struct.PJ_LP, align 8
  %15 = alloca double, align 8
  %16 = alloca double, align 8
  %17 = alloca double, align 8
  %18 = alloca double, align 8
  %19 = alloca double, align 8
  %20 = alloca %struct.PJ_LP, align 8
  %21 = alloca double, align 8
  %22 = alloca double, align 8
  %23 = getelementptr inbounds nuw { double, double }, ptr %5, i32 0, i32 0
  store double %0, ptr %23, align 8
  %24 = getelementptr inbounds nuw { double, double }, ptr %5, i32 0, i32 1
  store double %1, ptr %24, align 8
  store ptr %2, ptr %6, align 8, !tbaa !3
  call void @llvm.lifetime.start.p0(i64 16, ptr %7) #8
  call void @llvm.memset.p0.i64(ptr align 8 %7, i8 0, i64 16, i1 false)
  call void @llvm.lifetime.start.p0(i64 8, ptr %8) #8
  %25 = load ptr, ptr %6, align 8, !tbaa !3
  %26 = getelementptr inbounds nuw %struct.PJconsts, ptr %25, i32 0, i32 11
  %27 = load ptr, ptr %26, align 8, !tbaa !43
  store ptr %27, ptr %8, align 8, !tbaa !41
  %28 = load ptr, ptr %8, align 8, !tbaa !41
  %29 = getelementptr inbounds nuw %"struct.(anonymous namespace)::pj_aeqd_data", ptr %28, i32 0, i32 8
  %30 = load i32, ptr %29, align 8, !tbaa !47
  %31 = icmp eq i32 %30, 2
  br i1 %31, label %32, label %99

32:                                               ; preds = %3
  call void @llvm.lifetime.start.p0(i64 8, ptr %9) #8
  %33 = getelementptr inbounds nuw %struct.PJ_LP, ptr %5, i32 0, i32 1
  %34 = load double, ptr %33, align 8, !tbaa !74
  %35 = call double @cos(double noundef %34) #8, !tbaa !54
  store double %35, ptr %9, align 8, !tbaa !73
  call void @llvm.lifetime.start.p0(i64 8, ptr %10) #8
  %36 = getelementptr inbounds nuw %struct.PJ_LP, ptr %5, i32 0, i32 1
  %37 = load double, ptr %36, align 8, !tbaa !74
  %38 = call double @sin(double noundef %37) #8, !tbaa !54
  store double %38, ptr %10, align 8, !tbaa !73
  call void @llvm.lifetime.start.p0(i64 8, ptr %11) #8
  %39 = getelementptr inbounds nuw %struct.PJ_LP, ptr %5, i32 0, i32 0
  %40 = load double, ptr %39, align 8, !tbaa !76
  %41 = call double @cos(double noundef %40) #8, !tbaa !54
  store double %41, ptr %11, align 8, !tbaa !73
  call void @llvm.lifetime.start.p0(i64 8, ptr %12) #8
  %42 = getelementptr inbounds nuw %struct.PJ_LP, ptr %5, i32 0, i32 0
  %43 = load double, ptr %42, align 8, !tbaa !76
  %44 = call double @sin(double noundef %43) #8, !tbaa !54
  store double %44, ptr %12, align 8, !tbaa !73
  %45 = load double, ptr %9, align 8, !tbaa !73
  %46 = load double, ptr %11, align 8, !tbaa !73
  %47 = fmul double %45, %46
  %48 = getelementptr inbounds nuw %struct.PJ_XY, ptr %7, i32 0, i32 1
  store double %47, ptr %48, align 8, !tbaa !72
  %49 = getelementptr inbounds nuw %struct.PJ_XY, ptr %7, i32 0, i32 1
  %50 = load double, ptr %49, align 8, !tbaa !72
  %51 = call double @llvm.fabs.f64(double %50)
  %52 = fsub double %51, 1.000000e+00
  %53 = call double @llvm.fabs.f64(double %52)
  %54 = fcmp olt double %53, 0x3D06849B86A12B9B
  br i1 %54, label %55, label %73

55:                                               ; preds = %32
  %56 = getelementptr inbounds nuw %struct.PJ_XY, ptr %7, i32 0, i32 1
  %57 = load double, ptr %56, align 8, !tbaa !72
  %58 = fcmp olt double %57, 0.000000e+00
  br i1 %58, label %59, label %62

59:                                               ; preds = %55
  %60 = load ptr, ptr %6, align 8, !tbaa !3
  %61 = call i32 @proj_errno_set(ptr noundef %60, i32 noundef 2050)
  call void @llvm.memcpy.p0.p0.i64(ptr align 8 %4, ptr align 8 %7, i64 16, i1 false), !tbaa.struct !77
  store i32 1, ptr %13, align 4
  br label %96

62:                                               ; preds = %55
  call void @llvm.memcpy.p0.p0.i64(ptr align 8 %14, ptr align 8 %5, i64 16, i1 false), !tbaa.struct !77
  %63 = load ptr, ptr %6, align 8, !tbaa !3
  %64 = getelementptr inbounds nuw { double, double }, ptr %14, i32 0, i32 0
  %65 = load double, ptr %64, align 8
  %66 = getelementptr inbounds nuw { double, double }, ptr %14, i32 0, i32 1
  %67 = load double, ptr %66, align 8
  %68 = call { double, double } @_ZL14aeqd_e_forward5PJ_LPP8PJconsts(double %65, double %67, ptr noundef %63)
  %69 = getelementptr inbounds nuw { double, double }, ptr %4, i32 0, i32 0
  %70 = extractvalue { double, double } %68, 0
  store double %70, ptr %69, align 8
  %71 = getelementptr inbounds nuw { double, double }, ptr %4, i32 0, i32 1
  %72 = extractvalue { double, double } %68, 1
  store double %72, ptr %71, align 8
  store i32 1, ptr %13, align 4
  br label %96

73:                                               ; preds = %32
  %74 = getelementptr inbounds nuw %struct.PJ_XY, ptr %7, i32 0, i32 1
  %75 = load double, ptr %74, align 8, !tbaa !72
  %76 = call double @acos(double noundef %75) #8, !tbaa !54
  %77 = getelementptr inbounds nuw %struct.PJ_XY, ptr %7, i32 0, i32 1
  store double %76, ptr %77, align 8, !tbaa !72
  %78 = getelementptr inbounds nuw %struct.PJ_XY, ptr %7, i32 0, i32 1
  %79 = load double, ptr %78, align 8, !tbaa !72
  %80 = call double @sin(double noundef %79) #8, !tbaa !54
  %81 = getelementptr inbounds nuw %struct.PJ_XY, ptr %7, i32 0, i32 1
  %82 = load double, ptr %81, align 8, !tbaa !72
  %83 = fdiv double %82, %80
  store double %83, ptr %81, align 8, !tbaa !72
  %84 = getelementptr inbounds nuw %struct.PJ_XY, ptr %7, i32 0, i32 1
  %85 = load double, ptr %84, align 8, !tbaa !72
  %86 = load double, ptr %9, align 8, !tbaa !73
  %87 = fmul double %85, %86
  %88 = load double, ptr %12, align 8, !tbaa !73
  %89 = fmul double %87, %88
  %90 = getelementptr inbounds nuw %struct.PJ_XY, ptr %7, i32 0, i32 0
  store double %89, ptr %90, align 8, !tbaa !70
  %91 = load double, ptr %10, align 8, !tbaa !73
  %92 = getelementptr inbounds nuw %struct.PJ_XY, ptr %7, i32 0, i32 1
  %93 = load double, ptr %92, align 8, !tbaa !72
  %94 = fmul double %93, %91
  store double %94, ptr %92, align 8, !tbaa !72
  br label %95

95:                                               ; preds = %73
  store i32 0, ptr %13, align 4
  br label %96

96:                                               ; preds = %95, %62, %59
  call void @llvm.lifetime.end.p0(i64 8, ptr %12) #8
  call void @llvm.lifetime.end.p0(i64 8, ptr %11) #8
  call void @llvm.lifetime.end.p0(i64 8, ptr %10) #8
  call void @llvm.lifetime.end.p0(i64 8, ptr %9) #8
  %97 = load i32, ptr %13, align 4
  switch i32 %97, label %237 [
    i32 0, label %98
  ]

98:                                               ; preds = %96
  br label %236

99:                                               ; preds = %3
  %100 = load ptr, ptr %8, align 8, !tbaa !41
  %101 = getelementptr inbounds nuw %"struct.(anonymous namespace)::pj_aeqd_data", ptr %100, i32 0, i32 8
  %102 = load i32, ptr %101, align 8, !tbaa !47
  %103 = icmp eq i32 %102, 3
  br i1 %103, label %104, label %191

104:                                              ; preds = %99
  call void @llvm.lifetime.start.p0(i64 8, ptr %15) #8
  %105 = getelementptr inbounds nuw %struct.PJ_LP, ptr %5, i32 0, i32 1
  %106 = load double, ptr %105, align 8, !tbaa !74
  %107 = call double @cos(double noundef %106) #8, !tbaa !54
  store double %107, ptr %15, align 8, !tbaa !73
  call void @llvm.lifetime.start.p0(i64 8, ptr %16) #8
  %108 = getelementptr inbounds nuw %struct.PJ_LP, ptr %5, i32 0, i32 1
  %109 = load double, ptr %108, align 8, !tbaa !74
  %110 = call double @sin(double noundef %109) #8, !tbaa !54
  store double %110, ptr %16, align 8, !tbaa !73
  call void @llvm.lifetime.start.p0(i64 8, ptr %17) #8
  %111 = getelementptr inbounds nuw %struct.PJ_LP, ptr %5, i32 0, i32 0
  %112 = load double, ptr %111, align 8, !tbaa !76
  %113 = call double @cos(double noundef %112) #8, !tbaa !54
  store double %113, ptr %17, align 8, !tbaa !73
  call void @llvm.lifetime.start.p0(i64 8, ptr %18) #8
  %114 = getelementptr inbounds nuw %struct.PJ_LP, ptr %5, i32 0, i32 0
  %115 = load double, ptr %114, align 8, !tbaa !76
  %116 = call double @sin(double noundef %115) #8, !tbaa !54
  store double %116, ptr %18, align 8, !tbaa !73
  call void @llvm.lifetime.start.p0(i64 8, ptr %19) #8
  %117 = load double, ptr %15, align 8, !tbaa !73
  %118 = load double, ptr %17, align 8, !tbaa !73
  %119 = fmul double %117, %118
  store double %119, ptr %19, align 8, !tbaa !73
  %120 = load ptr, ptr %8, align 8, !tbaa !41
  %121 = getelementptr inbounds nuw %"struct.(anonymous namespace)::pj_aeqd_data", ptr %120, i32 0, i32 0
  %122 = load double, ptr %121, align 8, !tbaa !52
  %123 = load double, ptr %16, align 8, !tbaa !73
  %124 = load ptr, ptr %8, align 8, !tbaa !41
  %125 = getelementptr inbounds nuw %"struct.(anonymous namespace)::pj_aeqd_data", ptr %124, i32 0, i32 1
  %126 = load double, ptr %125, align 8, !tbaa !53
  %127 = load double, ptr %19, align 8, !tbaa !73
  %128 = fmul double %126, %127
  %129 = call double @llvm.fmuladd.f64(double %122, double %123, double %128)
  %130 = getelementptr inbounds nuw %struct.PJ_XY, ptr %7, i32 0, i32 1
  store double %129, ptr %130, align 8, !tbaa !72
  %131 = getelementptr inbounds nuw %struct.PJ_XY, ptr %7, i32 0, i32 1
  %132 = load double, ptr %131, align 8, !tbaa !72
  %133 = call double @llvm.fabs.f64(double %132)
  %134 = fsub double %133, 1.000000e+00
  %135 = call double @llvm.fabs.f64(double %134)
  %136 = fcmp olt double %135, 0x3D06849B86A12B9B
  br i1 %136, label %137, label %155

137:                                              ; preds = %104
  %138 = getelementptr inbounds nuw %struct.PJ_XY, ptr %7, i32 0, i32 1
  %139 = load double, ptr %138, align 8, !tbaa !72
  %140 = fcmp olt double %139, 0.000000e+00
  br i1 %140, label %141, label %144

141:                                              ; preds = %137
  %142 = load ptr, ptr %6, align 8, !tbaa !3
  %143 = call i32 @proj_errno_set(ptr noundef %142, i32 noundef 2050)
  call void @llvm.memcpy.p0.p0.i64(ptr align 8 %4, ptr align 8 %7, i64 16, i1 false), !tbaa.struct !77
  store i32 1, ptr %13, align 4
  br label %188

144:                                              ; preds = %137
  call void @llvm.memcpy.p0.p0.i64(ptr align 8 %20, ptr align 8 %5, i64 16, i1 false), !tbaa.struct !77
  %145 = load ptr, ptr %6, align 8, !tbaa !3
  %146 = getelementptr inbounds nuw { double, double }, ptr %20, i32 0, i32 0
  %147 = load double, ptr %146, align 8
  %148 = getelementptr inbounds nuw { double, double }, ptr %20, i32 0, i32 1
  %149 = load double, ptr %148, align 8
  %150 = call { double, double } @_ZL14aeqd_e_forward5PJ_LPP8PJconsts(double %147, double %149, ptr noundef %145)
  %151 = getelementptr inbounds nuw { double, double }, ptr %4, i32 0, i32 0
  %152 = extractvalue { double, double } %150, 0
  store double %152, ptr %151, align 8
  %153 = getelementptr inbounds nuw { double, double }, ptr %4, i32 0, i32 1
  %154 = extractvalue { double, double } %150, 1
  store double %154, ptr %153, align 8
  store i32 1, ptr %13, align 4
  br label %188

155:                                              ; preds = %104
  %156 = getelementptr inbounds nuw %struct.PJ_XY, ptr %7, i32 0, i32 1
  %157 = load double, ptr %156, align 8, !tbaa !72
  %158 = call double @acos(double noundef %157) #8, !tbaa !54
  %159 = getelementptr inbounds nuw %struct.PJ_XY, ptr %7, i32 0, i32 1
  store double %158, ptr %159, align 8, !tbaa !72
  %160 = getelementptr inbounds nuw %struct.PJ_XY, ptr %7, i32 0, i32 1
  %161 = load double, ptr %160, align 8, !tbaa !72
  %162 = call double @sin(double noundef %161) #8, !tbaa !54
  %163 = getelementptr inbounds nuw %struct.PJ_XY, ptr %7, i32 0, i32 1
  %164 = load double, ptr %163, align 8, !tbaa !72
  %165 = fdiv double %164, %162
  store double %165, ptr %163, align 8, !tbaa !72
  %166 = getelementptr inbounds nuw %struct.PJ_XY, ptr %7, i32 0, i32 1
  %167 = load double, ptr %166, align 8, !tbaa !72
  %168 = load double, ptr %15, align 8, !tbaa !73
  %169 = fmul double %167, %168
  %170 = load double, ptr %18, align 8, !tbaa !73
  %171 = fmul double %169, %170
  %172 = getelementptr inbounds nuw %struct.PJ_XY, ptr %7, i32 0, i32 0
  store double %171, ptr %172, align 8, !tbaa !70
  %173 = load ptr, ptr %8, align 8, !tbaa !41
  %174 = getelementptr inbounds nuw %"struct.(anonymous namespace)::pj_aeqd_data", ptr %173, i32 0, i32 1
  %175 = load double, ptr %174, align 8, !tbaa !53
  %176 = load double, ptr %16, align 8, !tbaa !73
  %177 = load ptr, ptr %8, align 8, !tbaa !41
  %178 = getelementptr inbounds nuw %"struct.(anonymous namespace)::pj_aeqd_data", ptr %177, i32 0, i32 0
  %179 = load double, ptr %178, align 8, !tbaa !52
  %180 = load double, ptr %19, align 8, !tbaa !73
  %181 = fmul double %179, %180
  %182 = fneg double %181
  %183 = call double @llvm.fmuladd.f64(double %175, double %176, double %182)
  %184 = getelementptr inbounds nuw %struct.PJ_XY, ptr %7, i32 0, i32 1
  %185 = load double, ptr %184, align 8, !tbaa !72
  %186 = fmul double %185, %183
  store double %186, ptr %184, align 8, !tbaa !72
  br label %187

187:                                              ; preds = %155
  store i32 0, ptr %13, align 4
  br label %188

188:                                              ; preds = %187, %144, %141
  call void @llvm.lifetime.end.p0(i64 8, ptr %19) #8
  call void @llvm.lifetime.end.p0(i64 8, ptr %18) #8
  call void @llvm.lifetime.end.p0(i64 8, ptr %17) #8
  call void @llvm.lifetime.end.p0(i64 8, ptr %16) #8
  call void @llvm.lifetime.end.p0(i64 8, ptr %15) #8
  %189 = load i32, ptr %13, align 4
  switch i32 %189, label %237 [
    i32 0, label %190
  ]

190:                                              ; preds = %188
  br label %235

191:                                              ; preds = %99
  call void @llvm.lifetime.start.p0(i64 8, ptr %21) #8
  %192 = getelementptr inbounds nuw %struct.PJ_LP, ptr %5, i32 0, i32 0
  %193 = load double, ptr %192, align 8, !tbaa !76
  %194 = call double @cos(double noundef %193) #8, !tbaa !54
  store double %194, ptr %21, align 8, !tbaa !73
  call void @llvm.lifetime.start.p0(i64 8, ptr %22) #8
  %195 = getelementptr inbounds nuw %struct.PJ_LP, ptr %5, i32 0, i32 0
  %196 = load double, ptr %195, align 8, !tbaa !76
  %197 = call double @sin(double noundef %196) #8, !tbaa !54
  store double %197, ptr %22, align 8, !tbaa !73
  %198 = load ptr, ptr %8, align 8, !tbaa !41
  %199 = getelementptr inbounds nuw %"struct.(anonymous namespace)::pj_aeqd_data", ptr %198, i32 0, i32 8
  %200 = load i32, ptr %199, align 8, !tbaa !47
  %201 = icmp eq i32 %200, 0
  br i1 %201, label %202, label %209

202:                                              ; preds = %191
  %203 = getelementptr inbounds nuw %struct.PJ_LP, ptr %5, i32 0, i32 1
  %204 = load double, ptr %203, align 8, !tbaa !74
  %205 = fneg double %204
  %206 = getelementptr inbounds nuw %struct.PJ_LP, ptr %5, i32 0, i32 1
  store double %205, ptr %206, align 8, !tbaa !74
  %207 = load double, ptr %21, align 8, !tbaa !73
  %208 = fneg double %207
  store double %208, ptr %21, align 8, !tbaa !73
  br label %209

209:                                              ; preds = %202, %191
  %210 = getelementptr inbounds nuw %struct.PJ_LP, ptr %5, i32 0, i32 1
  %211 = load double, ptr %210, align 8, !tbaa !74
  %212 = fsub double %211, 0x3FF921FB54442D18
  %213 = call double @llvm.fabs.f64(double %212)
  %214 = fcmp olt double %213, 1.000000e-10
  br i1 %214, label %215, label %218

215:                                              ; preds = %209
  %216 = load ptr, ptr %6, align 8, !tbaa !3
  %217 = call i32 @proj_errno_set(ptr noundef %216, i32 noundef 2050)
  call void @llvm.memcpy.p0.p0.i64(ptr align 8 %4, ptr align 8 %7, i64 16, i1 false), !tbaa.struct !77
  store i32 1, ptr %13, align 4
  br label %232

218:                                              ; preds = %209
  %219 = getelementptr inbounds nuw %struct.PJ_LP, ptr %5, i32 0, i32 1
  %220 = load double, ptr %219, align 8, !tbaa !74
  %221 = fadd double 0x3FF921FB54442D18, %220
  %222 = getelementptr inbounds nuw %struct.PJ_XY, ptr %7, i32 0, i32 1
  store double %221, ptr %222, align 8, !tbaa !72
  %223 = getelementptr inbounds nuw %struct.PJ_XY, ptr %7, i32 0, i32 1
  %224 = load double, ptr %223, align 8, !tbaa !72
  %225 = load double, ptr %22, align 8, !tbaa !73
  %226 = fmul double %224, %225
  %227 = getelementptr inbounds nuw %struct.PJ_XY, ptr %7, i32 0, i32 0
  store double %226, ptr %227, align 8, !tbaa !70
  %228 = load double, ptr %21, align 8, !tbaa !73
  %229 = getelementptr inbounds nuw %struct.PJ_XY, ptr %7, i32 0, i32 1
  %230 = load double, ptr %229, align 8, !tbaa !72
  %231 = fmul double %230, %228
  store double %231, ptr %229, align 8, !tbaa !72
  store i32 0, ptr %13, align 4
  br label %232

232:                                              ; preds = %218, %215
  call void @llvm.lifetime.end.p0(i64 8, ptr %22) #8
  call void @llvm.lifetime.end.p0(i64 8, ptr %21) #8
  %233 = load i32, ptr %13, align 4
  switch i32 %233, label %237 [
    i32 0, label %234
  ]

234:                                              ; preds = %232
  br label %235

235:                                              ; preds = %234, %190
  br label %236

236:                                              ; preds = %235, %98
  call void @llvm.memcpy.p0.p0.i64(ptr align 8 %4, ptr align 8 %7, i64 16, i1 false), !tbaa.struct !77
  store i32 1, ptr %13, align 4
  br label %237

237:                                              ; preds = %236, %232, %188, %96
  call void @llvm.lifetime.end.p0(i64 8, ptr %8) #8
  call void @llvm.lifetime.end.p0(i64 16, ptr %7) #8
  %238 = load { double, double }, ptr %4, align 8
  ret { double, double } %238
}