; Function Attrs: mustprogress uwtable
define internal { double, double } @_ZL14aeqd_s_forward5PJ_LPP8PJconsts(double %0, double %1, ptr noundef %2) #0 {
  %4 = getelementptr inbounds nuw i8, ptr %2, i64 88
  %5 = load ptr, ptr %4, align 8, !tbaa !40
  %6 = getelementptr inbounds nuw i8, ptr %5, i64 64
  %7 = load i32, ptr %6, align 8, !tbaa !44
  switch i32 %7, label %66 [
    i32 2, label %8
    i32 3, label %33
  ]

8:                                                ; preds = %3
  %9 = tail call double @cos(double noundef %1) #8, !tbaa !50
  %10 = tail call double @sin(double noundef %1) #8, !tbaa !50
  %11 = tail call double @cos(double noundef %0) #8, !tbaa !50
  %12 = tail call double @sin(double noundef %0) #8, !tbaa !50
  %13 = fmul double %9, %11
  %14 = tail call double @llvm.fabs.f64(double %13)
  %15 = fadd double %14, -1.000000e+00
  %16 = tail call double @llvm.fabs.f64(double %15)
  %17 = fcmp uge double %16, 0x3D06849B86A12B9B
  br i1 %17, label %26, label %18

18:                                               ; preds = %8
  %19 = fcmp olt double %13, 0.000000e+00
  br i1 %19, label %20, label %22

20:                                               ; preds = %18
  %21 = tail call i32 @proj_errno_set(ptr noundef nonnull %2, i32 noundef 2050)
  br label %.thread

22:                                               ; preds = %18
  %23 = tail call { double, double } @_ZL14aeqd_e_forward5PJ_LPP8PJconsts(double %0, double %1, ptr noundef nonnull %2)
  %24 = extractvalue { double, double } %23, 0
  %25 = extractvalue { double, double } %23, 1
  br label %.thread

26:                                               ; preds = %8
  %27 = tail call double @acos(double noundef %13) #8, !tbaa !50
  %28 = tail call double @sin(double noundef %27) #8, !tbaa !50
  %29 = fdiv double %27, %28
  %30 = fmul double %9, %29
  %31 = fmul double %12, %30
  %32 = fmul double %10, %29
  br label %.thread

33:                                               ; preds = %3
  %34 = tail call double @cos(double noundef %1) #8, !tbaa !50
  %35 = tail call double @sin(double noundef %1) #8, !tbaa !50
  %36 = tail call double @cos(double noundef %0) #8, !tbaa !50
  %37 = tail call double @sin(double noundef %0) #8, !tbaa !50
  %38 = fmul double %34, %36
  %39 = load double, ptr %5, align 8, !tbaa !49
  %40 = getelementptr inbounds nuw i8, ptr %5, i64 8
  %41 = load double, ptr %40, align 8, !tbaa !51
  %42 = fmul double %38, %41
  %43 = tail call double @llvm.fmuladd.f64(double %39, double %35, double %42)
  %44 = tail call double @llvm.fabs.f64(double %43)
  %45 = fadd double %44, -1.000000e+00
  %46 = tail call double @llvm.fabs.f64(double %45)
  %47 = fcmp uge double %46, 0x3D06849B86A12B9B
  br i1 %47, label %56, label %48

48:                                               ; preds = %33
  %49 = fcmp olt double %43, 0.000000e+00
  br i1 %49, label %50, label %52

50:                                               ; preds = %48
  %51 = tail call i32 @proj_errno_set(ptr noundef nonnull %2, i32 noundef 2050)
  br label %.thread

52:                                               ; preds = %48
  %53 = tail call { double, double } @_ZL14aeqd_e_forward5PJ_LPP8PJconsts(double %0, double %1, ptr noundef nonnull %2)
  %54 = extractvalue { double, double } %53, 0
  %55 = extractvalue { double, double } %53, 1
  br label %.thread

56:                                               ; preds = %33
  %57 = tail call double @acos(double noundef %43) #8, !tbaa !50
  %58 = tail call double @sin(double noundef %57) #8, !tbaa !50
  %59 = fdiv double %57, %58
  %60 = fmul double %34, %59
  %61 = fmul double %37, %60
  %62 = fneg double %38
  %63 = fmul double %39, %62
  %64 = tail call double @llvm.fmuladd.f64(double %41, double %35, double %63)
  %65 = fmul double %64, %59
  br label %.thread

66:                                               ; preds = %3
  %67 = tail call double @cos(double noundef %0) #8, !tbaa !50
  %68 = tail call double @sin(double noundef %0) #8, !tbaa !50
  %69 = icmp eq i32 %7, 0
  %70 = fneg double %1
  %.sroa.9.0 = select i1 %69, double %70, double %1
  %71 = fadd double %.sroa.9.0, 0xBFF921FB54442D18
  %72 = tail call double @llvm.fabs.f64(double %71)
  %73 = fcmp uge double %72, 1.000000e-10
  br i1 %73, label %.thread89, label %78

.thread89:                                        ; preds = %66
  %74 = fneg double %67
  %.0 = select i1 %69, double %74, double %67
  %75 = fadd double %.sroa.9.0, 0x3FF921FB54442D18
  %76 = fmul double %75, %68
  %77 = fmul double %75, %.0
  br label %.thread

78:                                               ; preds = %66
  %79 = tail call i32 @proj_errno_set(ptr noundef nonnull %2, i32 noundef 2050)
  br label %.thread

.thread:                                          ; preds = %50, %52, %20, %22, %26, %56, %.thread89, %78
  %.sroa.072.1 = phi double [ 0.000000e+00, %78 ], [ %31, %26 ], [ %61, %56 ], [ %76, %.thread89 ], [ %24, %22 ], [ 0.000000e+00, %20 ], [ %54, %52 ], [ 0.000000e+00, %50 ]
  %.sroa.7.1 = phi double [ 0.000000e+00, %78 ], [ %32, %26 ], [ %65, %56 ], [ %77, %.thread89 ], [ %25, %22 ], [ %13, %20 ], [ %55, %52 ], [ %43, %50 ]
  %.fca.0.insert = insertvalue { double, double } poison, double %.sroa.072.1, 0
  %.fca.1.insert = insertvalue { double, double } %.fca.0.insert, double %.sroa.7.1, 1
  ret { double, double } %.fca.1.insert
}